target datalayout = "e-m:e-p270:32:32-p271:32:32-p272:64:64-i64:64-i128:128-f80:128-n8:16:32:64-S128"
target triple = "x86_64-unknown-linux-gnu"

%struct.uv_fs_s = type { ptr, i32, [6 x ptr], i32, ptr, ptr, i64, ptr, ptr, %struct.uv_stat_t, ptr, i32, i32, i32, i32, ptr, i64, i32, i32, double, double, %struct.uv__work, [4 x %struct.uv_buf_t] }
%struct.uv_stat_t = type { i64, i64, i64, i64, i64, i64, i64, i64, i64, i64, i64, i64, %struct.uv_timespec_t, %struct.uv_timespec_t, %struct.uv_timespec_t, %struct.uv_timespec_t }
%struct.uv_timespec_t = type { i64, i64 }
%struct.uv__work = type { ptr, ptr, ptr, %struct.uv__queue }
%struct.uv__queue = type { ptr, ptr }
%struct.uv_buf_t = type { ptr, i64 }

; Function Attrs: nounwind uwtable
define void @uv_fs_req_cleanup(ptr noundef %req) #0 {
entry:
  %req.addr = alloca ptr, align 8
  store ptr %req, ptr %req.addr, align 8
  %0 = load ptr, ptr %req.addr, align 8
  %cmp = icmp eq ptr %0, null
  br i1 %cmp, label %if.then, label %if.end

if.then:                                          ; preds = %entry
  br label %return

if.end:                                           ; preds = %entry
  %1 = load ptr, ptr %req.addr, align 8
  %path = getelementptr inbounds %struct.uv_fs_s, ptr %1, i32 0, i32 8
  %2 = load ptr, ptr %path, align 8
  %cmp1 = icmp ne ptr %2, null
  br i1 %cmp1, label %land.lhs.true, label %if.end9

land.lhs.true:                                    ; preds = %if.end
  %3 = load ptr, ptr %req.addr, align 8
  %cb = getelementptr inbounds %struct.uv_fs_s, ptr %3, i32 0, i32 5
  %4 = load ptr, ptr %cb, align 8
  %cmp2 = icmp ne ptr %4, null
  br i1 %cmp2, label %if.then7, label %lor.lhs.false

lor.lhs.false:                                    ; preds = %land.lhs.true
  %5 = load ptr, ptr %req.addr, align 8
  %fs_type = getelementptr inbounds %struct.uv_fs_s, ptr %5, i32 0, i32 3
  %6 = load i32, ptr %fs_type, align 8
  %cmp3 = icmp eq i32 %6, 20
  br i1 %cmp3, label %if.then7, label %lor.lhs.false4

lor.lhs.false4:                                   ; preds = %lor.lhs.false
  %7 = load ptr, ptr %req.addr, align 8
  %fs_type5 = getelementptr inbounds %struct.uv_fs_s, ptr %7, i32 0, i32 3
  %8 = load i32, ptr %fs_type5, align 8
  %cmp6 = icmp eq i32 %8, 35
  br i1 %cmp6, label %if.then7, label %if.end9

if.then7:                                         ; preds = %lor.lhs.false4, %lor.lhs.false, %land.lhs.true
  %9 = load ptr, ptr %req.addr, align 8
  %path8 = getelementptr inbounds %struct.uv_fs_s, ptr %9, i32 0, i32 8
  %10 = load ptr, ptr %path8, align 8
  call void @uv__free(ptr noundef %10)
  br label %if.end9

if.end9:                                          ; preds = %if.then7, %lor.lhs.false4, %if.end
  %11 = load ptr, ptr %req.addr, align 8
  %path10 = getelementptr inbounds %struct.uv_fs_s, ptr %11, i32 0, i32 8
  store ptr null, ptr %path10, align 8
  %12 = load ptr, ptr %req.addr, align 8
  %new_path = getelementptr inbounds %struct.uv_fs_s, ptr %12, i32 0, i32 10
  store ptr null, ptr %new_path, align 8
  %13 = load ptr, ptr %req.addr, align 8
  %fs_type11 = getelementptr inbounds %struct.uv_fs_s, ptr %13, i32 0, i32 3
  %14 = load i32, ptr %fs_type11, align 8
  %cmp12 = icmp eq i32 %14, 32
  br i1 %cmp12, label %land.lhs.true13, label %if.end16

land.lhs.true13:                                  ; preds = %if.end9
  %15 = load ptr, ptr %req.addr, align 8
  %ptr = getelementptr inbounds %struct.uv_fs_s, ptr %15, i32 0, i32 7
  %16 = load ptr, ptr %ptr, align 8
  %cmp14 = icmp ne ptr %16, null
  br i1 %cmp14, label %if.then15, label %if.end16

if.then15:                                        ; preds = %land.lhs.true13
  %17 = load ptr, ptr %req.addr, align 8
  call void @uv__fs_readdir_cleanup(ptr noundef %17)
  br label %if.end16

if.end16:                                         ; preds = %if.then15, %land.lhs.true13, %if.end9
  %18 = load ptr, ptr %req.addr, align 8
  %fs_type17 = getelementptr inbounds %struct.uv_fs_s, ptr %18, i32 0, i32 3
  %19 = load i32, ptr %fs_type17, align 8
  %cmp18 = icmp eq i32 %19, 22
  br i1 %cmp18, label %land.lhs.true19, label %if.end23

land.lhs.true19:                                  ; preds = %if.end16
  %20 = load ptr, ptr %req.addr, align 8
  %ptr20 = getelementptr inbounds %struct.uv_fs_s, ptr %20, i32 0, i32 7
  %21 = load ptr, ptr %ptr20, align 8
  %cmp21 = icmp ne ptr %21, null
  br i1 %cmp21, label %if.then22, label %if.end23

if.then22:                                        ; preds = %land.lhs.true19
  %22 = load ptr, ptr %req.addr, align 8
  call void @uv__fs_scandir_cleanup(ptr noundef %22)
  br label %if.end23

if.end23:                                         ; preds = %if.then22, %land.lhs.true19, %if.end16
  %23 = load ptr, ptr %req.addr, align 8
  %bufs = getelementptr inbounds %struct.uv_fs_s, ptr %23, i32 0, i32 15
  %24 = load ptr, ptr %bufs, align 8
  %25 = load ptr, ptr %req.addr, align 8
  %bufsml = getelementptr inbounds %struct.uv_fs_s, ptr %25, i32 0, i32 22
  %arraydecay = getelementptr inbounds [4 x %struct.uv_buf_t], ptr %bufsml, i64 0, i64 0
  %cmp24 = icmp ne ptr %24, %arraydecay
  br i1 %cmp24, label %if.then25, label %if.end27

if.then25:                                        ; preds = %if.end23
  %26 = load ptr, ptr %req.addr, align 8
  %bufs26 = getelementptr inbounds %struct.uv_fs_s, ptr %26, i32 0, i32 15
  %27 = load ptr, ptr %bufs26, align 8
  call void @uv__free(ptr noundef %27)
  br label %if.end27

if.end27:                                         ; preds = %if.then25, %if.end23
  %28 = load ptr, ptr %req.addr, align 8
  %bufs28 = getelementptr inbounds %struct.uv_fs_s, ptr %28, i32 0, i32 15
  store ptr null, ptr %bufs28, align 8
  %29 = load ptr, ptr %req.addr, align 8
  %fs_type29 = getelementptr inbounds %struct.uv_fs_s, ptr %29, i32 0, i32 3
  %30 = load i32, ptr %fs_type29, align 8
  %cmp30 = icmp ne i32 %30, 31
  br i1 %cmp30, label %land.lhs.true31, label %if.end36

land.lhs.true31:                                  ; preds = %if.end27
  %31 = load ptr, ptr %req.addr, align 8
  %ptr32 = getelementptr inbounds %struct.uv_fs_s, ptr %31, i32 0, i32 7
  %32 = load ptr, ptr %ptr32, align 8
  %33 = load ptr, ptr %req.addr, align 8
  %statbuf = getelementptr inbounds %struct.uv_fs_s, ptr %33, i32 0, i32 9
  %cmp33 = icmp ne ptr %32, %statbuf
  br i1 %cmp33, label %if.then34, label %if.end36

if.then34:                                        ; preds = %land.lhs.true31
  %34 = load ptr, ptr %req.addr, align 8
  %ptr35 = getelementptr inbounds %struct.uv_fs_s, ptr %34, i32 0, i32 7
  %35 = load ptr, ptr %ptr35, align 8
  call void @uv__free(ptr noundef %35)
  br label %if.end36

if.end36:                                         ; preds = %if.then34, %land.lhs.true31, %if.end27
  %36 = load ptr, ptr %req.addr, align 8
  %ptr37 = getelementptr inbounds %struct.uv_fs_s, ptr %36, i32 0, i32 7
  store ptr null, ptr %ptr37, align 8
  br label %return

return:                                           ; preds = %if.end36, %if.then
  ret void
}