; Function Attrs: nounwind uwtable
define void @uv_fs_req_cleanup(ptr noundef %req) local_unnamed_addr #0 {
entry:
  %cmp = icmp eq ptr %req, null
  br i1 %cmp, label %return, label %if.end

if.end:                                           ; preds = %entry
  %path = getelementptr inbounds nuw i8, ptr %req, i64 104
  %0 = load ptr, ptr %path, align 8
  %cmp1.not = icmp eq ptr %0, null
  br i1 %cmp1.not, label %if.end9, label %land.lhs.true

land.lhs.true:                                    ; preds = %if.end
  %cb = getelementptr inbounds nuw i8, ptr %req, i64 80
  %1 = load ptr, ptr %cb, align 8
  %cmp2.not = icmp eq ptr %1, null
  br i1 %cmp2.not, label %lor.lhs.false, label %if.then7

lor.lhs.false:                                    ; preds = %land.lhs.true
  %fs_type = getelementptr inbounds nuw i8, ptr %req, i64 64
  %2 = load i32, ptr %fs_type, align 8
  switch i32 %2, label %if.end9 [
    i32 20, label %if.then7
    i32 35, label %if.then7
  ]

if.then7:                                         ; preds = %lor.lhs.false, %lor.lhs.false, %land.lhs.true
  tail call void @uv__free(ptr noundef nonnull %0) #15
  br label %if.end9

if.end9:                                          ; preds = %lor.lhs.false, %if.then7, %if.end
  store ptr null, ptr %path, align 8
  %new_path = getelementptr inbounds nuw i8, ptr %req, i64 272
  store ptr null, ptr %new_path, align 8
  %fs_type11 = getelementptr inbounds nuw i8, ptr %req, i64 64
  %3 = load i32, ptr %fs_type11, align 8
  %cmp12 = icmp eq i32 %3, 32
  br i1 %cmp12, label %land.lhs.true13, label %if.end16

land.lhs.true13:                                  ; preds = %if.end9
  %ptr = getelementptr inbounds nuw i8, ptr %req, i64 96
  %4 = load ptr, ptr %ptr, align 8
  %cmp14.not = icmp eq ptr %4, null
  br i1 %cmp14.not, label %if.end23, label %if.then15

if.then15:                                        ; preds = %land.lhs.true13
  tail call void @uv__fs_readdir_cleanup(ptr noundef nonnull %req) #15
  %.pr.pre = load i32, ptr %fs_type11, align 8
  br label %if.end16

if.end16:                                         ; preds = %if.then15, %if.end9
  %5 = phi i32 [ %3, %if.end9 ], [ %.pr.pre, %if.then15 ]
  %cmp18 = icmp eq i32 %5, 22
  br i1 %cmp18, label %land.lhs.true19, label %if.end23

land.lhs.true19:                                  ; preds = %if.end16
  %ptr20 = getelementptr inbounds nuw i8, ptr %req, i64 96
  %6 = load ptr, ptr %ptr20, align 8
  %cmp21.not = icmp eq ptr %6, null
  br i1 %cmp21.not, label %if.end23, label %if.then22

if.then22:                                        ; preds = %land.lhs.true19
  tail call void @uv__fs_scandir_cleanup(ptr noundef nonnull %req) #15
  br label %if.end23

if.end23:                                         ; preds = %land.lhs.true13, %if.then22, %land.lhs.true19, %if.end16
  %bufs = getelementptr inbounds nuw i8, ptr %req, i64 296
  %7 = load ptr, ptr %bufs, align 8
  %bufsml = getelementptr inbounds nuw i8, ptr %req, i64 376
  %cmp24.not = icmp eq ptr %7, %bufsml
  br i1 %cmp24.not, label %if.end27, label %if.then25

if.then25:                                        ; preds = %if.end23
  tail call void @uv__free(ptr noundef %7) #15
  br label %if.end27

if.end27:                                         ; preds = %if.then25, %if.end23
  store ptr null, ptr %bufs, align 8
  %8 = load i32, ptr %fs_type11, align 8
  %cmp30.not = icmp eq i32 %8, 31
  br i1 %cmp30.not, label %if.end36, label %land.lhs.true31

land.lhs.true31:                                  ; preds = %if.end27
  %ptr32 = getelementptr inbounds nuw i8, ptr %req, i64 96
  %9 = load ptr, ptr %ptr32, align 8
  %statbuf = getelementptr inbounds nuw i8, ptr %req, i64 112
  %cmp33.not = icmp eq ptr %9, %statbuf
  br i1 %cmp33.not, label %if.end36, label %if.then34

if.then34:                                        ; preds = %land.lhs.true31
  tail call void @uv__free(ptr noundef %9) #15
  br label %if.end36

if.end36:                                         ; preds = %if.then34, %land.lhs.true31, %if.end27
  %ptr37 = getelementptr inbounds nuw i8, ptr %req, i64 96
  store ptr null, ptr %ptr37, align 8
  br label %return

return:                                           ; preds = %entry, %if.end36
  ret void
}